(dp0
S'Anthony'
p1
(S'Anthony'
p2
S'George'
p3
S'(903)271-5281'
p4
S'pategeorge12@gmail.com'
p5
tp6
sS'Sherri'
p7
(S'Sherri'
p8
S'George'
p9
S'Invalid'
p10
S'geor9@hotmail.com'
p11
tp12
sS'Wesley'
p13
(S'Wesley'
p14
S'Miravete'
p15
S'Invalid'
p16
S'thelordofgiggles@gmail.com'
p17
tp18
sS'David'
p19
(S'David'
p20
S'Dursteler'
p21
S'Invalid'
p22
S'racerd123@gmial.com'
p23
tp24
s.